target datalayout = "e-m:e-p270:32:32-p271:32:32-p272:64:64-i64:64-i128:128-f80:128-n8:16:32:64-S128"
target triple = "x86_64-pc-linux-gnu"

%struct.Vec_Int_t_ = type { i32, i32, ptr }

; Function Attrs: inlinehint nounwind uwtable
define internal void @Vec_IntClear(ptr noundef %0) #3 {
  %2 = alloca ptr, align 8
  store ptr %0, ptr %2, align 8, !tbaa !61
  %3 = load ptr, ptr %2, align 8, !tbaa !61
  %4 = getelementptr inbounds nuw %struct.Vec_Int_t_, ptr %3, i32 0, i32 1
  store i32 0, ptr %4, align 4, !tbaa !62
  ret void
}

; Function Attrs: nounwind uwtable
define void @Str_MuxStructCollect(ptr noundef %0, ptr noundef %1, ptr noundef %2) #0 {
  %4 = alloca ptr, align 8
  %5 = alloca ptr, align 8
  %6 = alloca ptr, align 8
  store ptr %0, ptr %4, align 8, !tbaa !3
  store ptr %1, ptr %5, align 8, !tbaa !46
  store ptr %2, ptr %6, align 8, !tbaa !61
  %7 = load ptr, ptr %5, align 8, !tbaa !46
  %8 = load i64, ptr %7, align 4
  %9 = and i64 %8, -1073741825
  %10 = or i64 %9, 1073741824
  store i64 %10, ptr %7, align 4
  %11 = load ptr, ptr %6, align 8, !tbaa !61
  call void @Vec_IntClear(ptr noundef %11)
  %12 = load ptr, ptr %4, align 8, !tbaa !3
  %13 = load ptr, ptr %5, align 8, !tbaa !46
  %14 = load ptr, ptr %6, align 8, !tbaa !61
  call void @Str_MuxStructCollect_rec(ptr noundef %12, ptr noundef %13, ptr noundef %14)
  %15 = load ptr, ptr %5, align 8, !tbaa !46
  %16 = load i64, ptr %15, align 4
  %17 = and i64 %16, -1073741825
  %18 = or i64 %17, 0
  store i64 %18, ptr %15, align 4
  ret void
}