; Function Attrs: nounwind uwtable
define void @Str_MuxStructCollect(ptr noundef %0, ptr noundef %1, ptr noundef initializes((4, 8)) %2) local_unnamed_addr #0 {
  %4 = load i64, ptr %1, align 4
  %5 = or i64 %4, 1073741824
  store i64 %5, ptr %1, align 4
  %6 = getelementptr inbounds nuw i8, ptr %2, i64 4
  store i32 0, ptr %6, align 4, !tbaa !45
  tail call void @Str_MuxStructCollect_rec(ptr noundef %0, ptr noundef nonnull %1, ptr noundef %2)
  %7 = load i64, ptr %1, align 4
  %8 = and i64 %7, -1073741825
  store i64 %8, ptr %1, align 4
  ret void
}